target datalayout = "e-m:e-p270:32:32-p271:32:32-p272:64:64-i64:64-i128:128-f80:128-n8:16:32:64-S128"
target triple = "x86_64-pc-linux-gnu"

%struct.pmix_class_t = type { ptr, ptr, ptr, ptr, i32, i32, ptr, ptr, i64 }
%union.pthread_mutex_t = type { %struct.__pthread_mutex_s }
%struct.__pthread_mutex_s = type { i32, i32, i32, i32, i32, i16, i16, %struct.__pthread_internal_list }
%struct.__pthread_internal_list = type { ptr, ptr }
%struct.pmix_tma = type { ptr, ptr, ptr, ptr, ptr, ptr, ptr, ptr }
%struct.pmix_object_t = type { %union.pthread_mutex_t, ptr, i32, %struct.pmix_tma }
%struct.timeval = type { i64, i64 }
%struct.pmix_output_desc_t = type { i8, i8, i32, i8, i32, ptr, ptr, i32, ptr, i32, i8, i8, i8, i8, ptr, i32, i32 }
%struct.prte_process_info_t = type { %struct.pmix_proc, %struct.pmix_proc, ptr, %struct.pmix_proc, i32, i32, i32, ptr, ptr, i32, i8, ptr, i16, ptr, ptr, i8, ptr, i8 }
%struct.pmix_proc = type { [256 x i8], i32 }
%struct.prte_oob_tcp_conn_op_t = type { %struct.pmix_object_t, ptr, %struct.event }
%struct.event = type { %struct.event_callback, %union.anon.0, i32, ptr, %union.anon.2, i16, i16, %struct.timeval }
%struct.event_callback = type { %struct.anon, i16, i8, i8, %union.anon, ptr }
%struct.anon = type { ptr, ptr }
%union.anon = type { ptr }
%union.anon.0 = type { %struct.anon.1 }
%struct.anon.1 = type { ptr, ptr }
%union.anon.2 = type { %struct.anon.3 }
%struct.anon.3 = type { %struct.anon.4, %struct.timeval }
%struct.anon.4 = type { ptr, ptr }

@pmix_output_info = external global [0 x %struct.pmix_output_desc_t], align 8
@pmix_class_init_epoch = external global i32, align 4
@prte_process_info = external global %struct.prte_process_info_t, align 8
@.str.42 = private unnamed_addr constant [29 x i8] c"%s accept_connection: %s:%d\0A\00", align 1
@prte_oob_tcp_conn_op_t_class = external global %struct.pmix_class_t, align 8
@prte_event_base = external global ptr, align 8

; Function Attrs: inlinehint nounwind uwtable
define internal void @pmix_obj_run_constructors(ptr noundef %0) #3 {
  %2 = alloca ptr, align 8
  %3 = alloca ptr, align 8
  store ptr %0, ptr %2, align 8, !tbaa !64
  call void @llvm.lifetime.start.p0(i64 8, ptr %3) #12
  %4 = load ptr, ptr %2, align 8, !tbaa !64
  %5 = getelementptr inbounds nuw %struct.pmix_object_t, ptr %4, i32 0, i32 1
  %6 = load ptr, ptr %5, align 8, !tbaa !28
  %7 = getelementptr inbounds nuw %struct.pmix_class_t, ptr %6, i32 0, i32 6
  %8 = load ptr, ptr %7, align 8, !tbaa !78
  store ptr %8, ptr %3, align 8, !tbaa !77
  br label %9

9:                                                ; preds = %13, %1
  %10 = load ptr, ptr %3, align 8, !tbaa !77
  %11 = load ptr, ptr %10, align 8, !tbaa !77
  %12 = icmp ne ptr null, %11
  br i1 %12, label %13, label %19

13:                                               ; preds = %9
  %14 = load ptr, ptr %3, align 8, !tbaa !77
  %15 = load ptr, ptr %14, align 8, !tbaa !77
  %16 = load ptr, ptr %2, align 8, !tbaa !64
  call void %15(ptr noundef %16)
  %17 = load ptr, ptr %3, align 8, !tbaa !77
  %18 = getelementptr inbounds nuw ptr, ptr %17, i32 1
  store ptr %18, ptr %3, align 8, !tbaa !77
  br label %9, !llvm.loop !79

19:                                               ; preds = %9
  call void @llvm.lifetime.end.p0(i64 8, ptr %3) #12
  ret void
}

; Function Attrs: inlinehint nounwind uwtable
define internal ptr @pmix_tma_malloc(ptr noundef %0, i64 noundef %1) #3 {
  %3 = alloca ptr, align 8
  %4 = alloca ptr, align 8
  %5 = alloca i64, align 8
  store ptr %0, ptr %4, align 8, !tbaa !66
  store i64 %1, ptr %5, align 8, !tbaa !134
  %6 = load ptr, ptr %4, align 8, !tbaa !66
  %7 = icmp ne ptr null, %6
  br i1 %7, label %8, label %15

8:                                                ; preds = %2
  %9 = load ptr, ptr %4, align 8, !tbaa !66
  %10 = getelementptr inbounds nuw %struct.pmix_tma, ptr %9, i32 0, i32 0
  %11 = load ptr, ptr %10, align 8, !tbaa !135
  %12 = load ptr, ptr %4, align 8, !tbaa !66
  %13 = load i64, ptr %5, align 8, !tbaa !134
  %14 = call ptr %11(ptr noundef %12, i64 noundef %13)
  store ptr %14, ptr %3, align 8
  br label %18

15:                                               ; preds = %2
  %16 = load i64, ptr %5, align 8, !tbaa !134
  %17 = call noalias ptr @malloc(i64 noundef %16) #16
  store ptr %17, ptr %3, align 8
  br label %18

18:                                               ; preds = %15, %8
  %19 = load ptr, ptr %3, align 8
  ret ptr %19
}

; Function Attrs: inlinehint nounwind uwtable
define internal void @pmix_atomic_wmb() #3 {
  fence release
  ret void
}

; Function Attrs: inlinehint nounwind uwtable
define internal ptr @pmix_obj_new_tma(ptr noundef %0, ptr noundef %1) #3 {
  %3 = alloca ptr, align 8
  %4 = alloca ptr, align 8
  %5 = alloca ptr, align 8
  store ptr %0, ptr %3, align 8, !tbaa !91
  store ptr %1, ptr %4, align 8, !tbaa !66
  call void @llvm.lifetime.start.p0(i64 8, ptr %5) #12
  %6 = load ptr, ptr %4, align 8, !tbaa !66
  %7 = load ptr, ptr %3, align 8, !tbaa !91
  %8 = getelementptr inbounds nuw %struct.pmix_class_t, ptr %7, i32 0, i32 8
  %9 = load i64, ptr %8, align 8, !tbaa !92
  %10 = call ptr @pmix_tma_malloc(ptr noundef %6, i64 noundef %9)
  store ptr %10, ptr %5, align 8, !tbaa !64
  %11 = load i32, ptr @pmix_class_init_epoch, align 4, !tbaa !25
  %12 = load ptr, ptr %3, align 8, !tbaa !91
  %13 = getelementptr inbounds nuw %struct.pmix_class_t, ptr %12, i32 0, i32 4
  %14 = load i32, ptr %13, align 8, !tbaa !26
  %15 = icmp ne i32 %11, %14
  br i1 %15, label %16, label %18

16:                                               ; preds = %2
  %17 = load ptr, ptr %3, align 8, !tbaa !91
  call void @pmix_class_initialize(ptr noundef %17)
  br label %18

18:                                               ; preds = %16, %2
  %19 = load ptr, ptr %5, align 8, !tbaa !64
  %20 = icmp ne ptr null, %19
  br i1 %20, label %21, label %60

21:                                               ; preds = %18
  %22 = load ptr, ptr %5, align 8, !tbaa !64
  %23 = getelementptr inbounds nuw %struct.pmix_object_t, ptr %22, i32 0, i32 0
  %24 = call i32 @pthread_mutex_init(ptr noundef %23, ptr noundef null) #12
  %25 = load ptr, ptr %3, align 8, !tbaa !91
  %26 = load ptr, ptr %5, align 8, !tbaa !64
  %27 = getelementptr inbounds nuw %struct.pmix_object_t, ptr %26, i32 0, i32 1
  store ptr %25, ptr %27, align 8, !tbaa !28
  %28 = load ptr, ptr %5, align 8, !tbaa !64
  %29 = getelementptr inbounds nuw %struct.pmix_object_t, ptr %28, i32 0, i32 2
  store i32 1, ptr %29, align 8, !tbaa !29
  %30 = load ptr, ptr %4, align 8, !tbaa !66
  %31 = icmp eq ptr null, %30
  br i1 %31, label %32, label %54

32:                                               ; preds = %21
  %33 = load ptr, ptr %5, align 8, !tbaa !64
  %34 = getelementptr inbounds nuw %struct.pmix_object_t, ptr %33, i32 0, i32 3
  %35 = getelementptr inbounds nuw %struct.pmix_tma, ptr %34, i32 0, i32 0
  store ptr null, ptr %35, align 8, !tbaa !68
  %36 = load ptr, ptr %5, align 8, !tbaa !64
  %37 = getelementptr inbounds nuw %struct.pmix_object_t, ptr %36, i32 0, i32 3
  %38 = getelementptr inbounds nuw %struct.pmix_tma, ptr %37, i32 0, i32 1
  store ptr null, ptr %38, align 8, !tbaa !69
  %39 = load ptr, ptr %5, align 8, !tbaa !64
  %40 = getelementptr inbounds nuw %struct.pmix_object_t, ptr %39, i32 0, i32 3
  %41 = getelementptr inbounds nuw %struct.pmix_tma, ptr %40, i32 0, i32 2
  store ptr null, ptr %41, align 8, !tbaa !70
  %42 = load ptr, ptr %5, align 8, !tbaa !64
  %43 = getelementptr inbounds nuw %struct.pmix_object_t, ptr %42, i32 0, i32 3
  %44 = getelementptr inbounds nuw %struct.pmix_tma, ptr %43, i32 0, i32 3
  store ptr null, ptr %44, align 8, !tbaa !71
  %45 = load ptr, ptr %5, align 8, !tbaa !64
  %46 = getelementptr inbounds nuw %struct.pmix_object_t, ptr %45, i32 0, i32 3
  %47 = getelementptr inbounds nuw %struct.pmix_tma, ptr %46, i32 0, i32 5
  store ptr null, ptr %47, align 8, !tbaa !73
  %48 = load ptr, ptr %5, align 8, !tbaa !64
  %49 = getelementptr inbounds nuw %struct.pmix_object_t, ptr %48, i32 0, i32 3
  %50 = getelementptr inbounds nuw %struct.pmix_tma, ptr %49, i32 0, i32 6
  store ptr null, ptr %50, align 8, !tbaa !74
  %51 = load ptr, ptr %5, align 8, !tbaa !64
  %52 = getelementptr inbounds nuw %struct.pmix_object_t, ptr %51, i32 0, i32 3
  %53 = getelementptr inbounds nuw %struct.pmix_tma, ptr %52, i32 0, i32 7
  store ptr null, ptr %53, align 8, !tbaa !75
  br label %58

54:                                               ; preds = %21
  %55 = load ptr, ptr %5, align 8, !tbaa !64
  %56 = getelementptr inbounds nuw %struct.pmix_object_t, ptr %55, i32 0, i32 3
  %57 = load ptr, ptr %4, align 8, !tbaa !66
  call void @llvm.memcpy.p0.p0.i64(ptr align 8 %56, ptr align 8 %57, i64 64, i1 false), !tbaa.struct !76
  br label %58

58:                                               ; preds = %54, %32
  %59 = load ptr, ptr %5, align 8, !tbaa !64
  call void @pmix_obj_run_constructors(ptr noundef %59)
  br label %60

60:                                               ; preds = %58, %18
  %61 = load ptr, ptr %5, align 8, !tbaa !64
  call void @llvm.lifetime.end.p0(i64 8, ptr %5) #12
  ret ptr %61
}

; Function Attrs: nounwind uwtable
define void @prte_oob_accept_connection(i32 noundef %0, ptr noundef %1) #0 {
  %3 = alloca i32, align 4
  %4 = alloca ptr, align 8
  %5 = alloca ptr, align 8
  store i32 %0, ptr %3, align 4, !tbaa !25
  store ptr %1, ptr %4, align 8, !tbaa !116
  %6 = load i32, ptr @prte_oob_base, align 8, !tbaa !10
  %7 = icmp sge i32 %6, 0
  br i1 %7, label %8, label %25

8:                                                ; preds = %2
  %9 = load i32, ptr @prte_oob_base, align 8, !tbaa !10
  %10 = icmp slt i32 %9, 64
  br i1 %10, label %11, label %25

11:                                               ; preds = %8
  %12 = load i32, ptr @prte_oob_base, align 8, !tbaa !10
  %13 = sext i32 %12 to i64
  %14 = getelementptr inbounds [0 x %struct.pmix_output_desc_t], ptr @pmix_output_info, i64 0, i64 %13
  %15 = getelementptr inbounds nuw %struct.pmix_output_desc_t, ptr %14, i32 0, i32 2
  %16 = load i32, ptr %15, align 4, !tbaa !22
  %17 = icmp sge i32 %16, 7
  br i1 %17, label %18, label %25

18:                                               ; preds = %11
  %19 = load i32, ptr @prte_oob_base, align 8, !tbaa !10
  %20 = call ptr @prte_util_print_name_args(ptr noundef @prte_process_info)
  %21 = load ptr, ptr %4, align 8, !tbaa !116
  %22 = call ptr @pmix_net_get_hostname(ptr noundef %21)
  %23 = load ptr, ptr %4, align 8, !tbaa !116
  %24 = call i32 @pmix_net_get_port(ptr noundef %23)
  call void (i32, ptr, ...) @pmix_output(i32 noundef %19, ptr noundef @.str.42, ptr noundef %20, ptr noundef %22, i32 noundef %24)
  br label %25

25:                                               ; preds = %18, %11, %8, %2
  %26 = load i32, ptr %3, align 4, !tbaa !25
  call void @prte_oob_tcp_set_socket_options(i32 noundef %26)
  br label %27

27:                                               ; preds = %25
  call void @llvm.lifetime.start.p0(i64 8, ptr %5) #12
  %28 = call ptr @pmix_obj_new_tma(ptr noundef @prte_oob_tcp_conn_op_t_class, ptr noundef null)
  store ptr %28, ptr %5, align 8, !tbaa !77
  %29 = load ptr, ptr %5, align 8, !tbaa !77
  %30 = getelementptr inbounds nuw %struct.prte_oob_tcp_conn_op_t, ptr %29, i32 0, i32 2
  %31 = load ptr, ptr @prte_event_base, align 8, !tbaa !118
  %32 = load i32, ptr %3, align 4, !tbaa !25
  %33 = load ptr, ptr %5, align 8, !tbaa !77
  %34 = call i32 @prte_event_assign(ptr noundef %30, ptr noundef %31, i32 noundef %32, i16 noundef signext 2, ptr noundef @recv_handler, ptr noundef %33)
  call void @pmix_atomic_wmb()
  %35 = load ptr, ptr %5, align 8, !tbaa !77
  %36 = getelementptr inbounds nuw %struct.prte_oob_tcp_conn_op_t, ptr %35, i32 0, i32 2
  %37 = call i32 @event_add(ptr noundef %36, ptr noundef null)
  call void @llvm.lifetime.end.p0(i64 8, ptr %5) #12
  br label %38

38:                                               ; preds = %27
  ret void
}