; Function Attrs: nounwind uwtable
define void @prte_oob_accept_connection(i32 noundef %0, ptr noundef %1) local_unnamed_addr #0 {
  %3 = load i32, ptr @prte_oob_base, align 8, !tbaa !3
  %or.cond = icmp ult i32 %3, 64
  br i1 %or.cond, label %4, label %13

4:                                                ; preds = %2
  %5 = zext nneg i32 %3 to i64
  %6 = getelementptr inbounds nuw [0 x %struct.pmix_output_desc_t], ptr @pmix_output_info, i64 0, i64 %5, i32 2
  %7 = load i32, ptr %6, align 4, !tbaa !20
  %8 = icmp sgt i32 %7, 6
  br i1 %8, label %9, label %13

9:                                                ; preds = %4
  %10 = tail call ptr @prte_util_print_name_args(ptr noundef nonnull @prte_process_info) #16
  %11 = tail call ptr @pmix_net_get_hostname(ptr noundef %1) #16
  %12 = tail call i32 @pmix_net_get_port(ptr noundef %1) #16
  tail call void (i32, ptr, ...) @pmix_output(i32 noundef %3, ptr noundef nonnull @.str.42, ptr noundef %10, ptr noundef %11, i32 noundef %12) #16
  br label %13

13:                                               ; preds = %9, %4, %2
  tail call void @prte_oob_tcp_set_socket_options(i32 noundef %0) #16
  %14 = load i64, ptr getelementptr inbounds nuw (i8, ptr @prte_oob_tcp_conn_op_t_class, i64 56), align 8, !tbaa !50
  %15 = tail call noalias noundef ptr @malloc(i64 noundef %14) #17
  %16 = load i32, ptr @pmix_class_init_epoch, align 4, !tbaa !23
  %17 = load i32, ptr getelementptr inbounds nuw (i8, ptr @prte_oob_tcp_conn_op_t_class, i64 32), align 8, !tbaa !24
  %.not.i = icmp eq i32 %16, %17
  br i1 %.not.i, label %19, label %18

18:                                               ; preds = %13
  tail call void @pmix_class_initialize(ptr noundef nonnull @prte_oob_tcp_conn_op_t_class) #16
  br label %19

19:                                               ; preds = %18, %13
  %.not22.i = icmp eq ptr %15, null
  br i1 %.not22.i, label %pmix_obj_new_tma.exit, label %20

20:                                               ; preds = %19
  %21 = tail call i32 @pthread_mutex_init(ptr noundef nonnull %15, ptr noundef null) #16
  %22 = getelementptr inbounds nuw i8, ptr %15, i64 40
  store ptr @prte_oob_tcp_conn_op_t_class, ptr %22, align 8, !tbaa !26
  %23 = getelementptr inbounds nuw i8, ptr %15, i64 48
  store i32 1, ptr %23, align 8, !tbaa !27
  %24 = getelementptr inbounds nuw i8, ptr %15, i64 56
  %25 = getelementptr inbounds nuw i8, ptr %15, i64 96
  tail call void @llvm.memset.p0.i64(ptr noundef nonnull align 8 dereferenceable(32) %24, i8 0, i64 32, i1 false)
  tail call void @llvm.memset.p0.i64(ptr noundef nonnull align 8 dereferenceable(24) %25, i8 0, i64 24, i1 false)
  %26 = load ptr, ptr getelementptr inbounds nuw (i8, ptr @prte_oob_tcp_conn_op_t_class, i64 40), align 8, !tbaa !28
  %27 = load ptr, ptr %26, align 8, !tbaa !29
  %.not6.i.i = icmp eq ptr %27, null
  br i1 %.not6.i.i, label %pmix_obj_new_tma.exit, label %.lr.ph.i.i

.lr.ph.i.i:                                       ; preds = %20, %.lr.ph.i.i
  %28 = phi ptr [ %30, %.lr.ph.i.i ], [ %27, %20 ]
  %.07.i.i = phi ptr [ %29, %.lr.ph.i.i ], [ %26, %20 ]
  tail call void %28(ptr noundef nonnull %15) #16
  %29 = getelementptr inbounds nuw i8, ptr %.07.i.i, i64 8
  %30 = load ptr, ptr %29, align 8, !tbaa !29
  %.not.i.i = icmp eq ptr %30, null
  br i1 %.not.i.i, label %pmix_obj_new_tma.exit, label %.lr.ph.i.i, !llvm.loop !30

pmix_obj_new_tma.exit:                            ; preds = %.lr.ph.i.i, %19, %20
  %31 = getelementptr inbounds nuw i8, ptr %15, i64 128
  %32 = load ptr, ptr @prte_event_base, align 8, !tbaa !94
  %33 = tail call i32 @prte_event_assign(ptr noundef nonnull %31, ptr noundef %32, i32 noundef %0, i16 noundef signext 2, ptr noundef nonnull @recv_handler, ptr noundef %15) #16
  fence release
  %34 = tail call i32 @event_add(ptr noundef nonnull %31, ptr noundef null) #16
  ret void
}